target datalayout = "e-m:e-p270:32:32-p271:32:32-p272:64:64-i64:64-i128:128-f80:128-n8:16:32:64-S128"
target triple = "x86_64-pc-linux-gnu"

; Function Attrs: mustprogress uwtable
define i32 @u_file_write_77(ptr noundef %0, i32 noundef %1, ptr noundef %2) #0 {
  %4 = alloca ptr, align 8
  %5 = alloca i32, align 4
  %6 = alloca ptr, align 8
  store ptr %0, ptr %4, align 8, !tbaa !30
  store i32 %1, ptr %5, align 4, !tbaa !31
  store ptr %2, ptr %6, align 8, !tbaa !3
  %7 = load ptr, ptr %4, align 8, !tbaa !30
  %8 = load i32, ptr %5, align 4, !tbaa !31
  %9 = load ptr, ptr %6, align 8, !tbaa !3
  %10 = call i32 @u_file_write_flush_77(ptr noundef %7, i32 noundef %8, ptr noundef %9, i8 noundef signext 0, i8 noundef signext 0)
  ret i32 %10
}

; Function Attrs: mustprogress uwtable
define i32 @u_fputc_77(i32 noundef %0, ptr noundef %1) #0 {
  %3 = alloca i32, align 4
  %4 = alloca i32, align 4
  %5 = alloca ptr, align 8
  %6 = alloca [2 x i16], align 2
  %7 = alloca i32, align 4
  %8 = alloca i8, align 1
  %9 = alloca i32, align 4
  store i32 %0, ptr %4, align 4, !tbaa !31
  store ptr %1, ptr %5, align 8, !tbaa !3
  call void @llvm.lifetime.start.p0(i64 4, ptr %6) #10
  call void @llvm.lifetime.start.p0(i64 4, ptr %7) #10
  store i32 0, ptr %7, align 4, !tbaa !31
  call void @llvm.lifetime.start.p0(i64 1, ptr %8) #10
  store i8 0, ptr %8, align 1, !tbaa !32
  br label %10

10:                                               ; preds = %2
  %11 = load i32, ptr %4, align 4, !tbaa !31
  %12 = icmp ule i32 %11, 65535
  br i1 %12, label %13, label %20

13:                                               ; preds = %10
  %14 = load i32, ptr %4, align 4, !tbaa !31
  %15 = trunc i32 %14 to i16
  %16 = load i32, ptr %7, align 4, !tbaa !31
  %17 = add nsw i32 %16, 1
  store i32 %17, ptr %7, align 4, !tbaa !31
  %18 = sext i32 %16 to i64
  %19 = getelementptr inbounds [2 x i16], ptr %6, i64 0, i64 %18
  store i16 %15, ptr %19, align 2, !tbaa !40
  br label %46

20:                                               ; preds = %10
  %21 = load i32, ptr %4, align 4, !tbaa !31
  %22 = icmp ule i32 %21, 1114111
  br i1 %22, label %23, label %44

23:                                               ; preds = %20
  %24 = load i32, ptr %7, align 4, !tbaa !31
  %25 = add nsw i32 %24, 1
  %26 = icmp slt i32 %25, 2
  br i1 %26, label %27, label %44

27:                                               ; preds = %23
  %28 = load i32, ptr %4, align 4, !tbaa !31
  %29 = ashr i32 %28, 10
  %30 = add nsw i32 %29, 55232
  %31 = trunc i32 %30 to i16
  %32 = load i32, ptr %7, align 4, !tbaa !31
  %33 = add nsw i32 %32, 1
  store i32 %33, ptr %7, align 4, !tbaa !31
  %34 = sext i32 %32 to i64
  %35 = getelementptr inbounds [2 x i16], ptr %6, i64 0, i64 %34
  store i16 %31, ptr %35, align 2, !tbaa !40
  %36 = load i32, ptr %4, align 4, !tbaa !31
  %37 = and i32 %36, 1023
  %38 = or i32 %37, 56320
  %39 = trunc i32 %38 to i16
  %40 = load i32, ptr %7, align 4, !tbaa !31
  %41 = add nsw i32 %40, 1
  store i32 %41, ptr %7, align 4, !tbaa !31
  %42 = sext i32 %40 to i64
  %43 = getelementptr inbounds [2 x i16], ptr %6, i64 0, i64 %42
  store i16 %39, ptr %43, align 2, !tbaa !40
  br label %45

44:                                               ; preds = %23, %20
  store i8 1, ptr %8, align 1, !tbaa !32
  br label %45

45:                                               ; preds = %44, %27
  br label %46

46:                                               ; preds = %45, %13
  br label %47

47:                                               ; preds = %46
  br label %48

48:                                               ; preds = %47
  %49 = load i8, ptr %8, align 1, !tbaa !32
  %50 = icmp ne i8 %49, 0
  br i1 %50, label %51, label %52

51:                                               ; preds = %48
  store i32 65535, ptr %3, align 4
  store i32 1, ptr %9, align 4
  br label %64

52:                                               ; preds = %48
  %53 = getelementptr inbounds [2 x i16], ptr %6, i64 0, i64 0
  %54 = load i32, ptr %7, align 4, !tbaa !31
  %55 = load ptr, ptr %5, align 8, !tbaa !3
  %56 = call i32 @u_file_write_77(ptr noundef %53, i32 noundef %54, ptr noundef %55)
  %57 = load i32, ptr %7, align 4, !tbaa !31
  %58 = icmp eq i32 %56, %57
  br i1 %58, label %59, label %61

59:                                               ; preds = %52
  %60 = load i32, ptr %4, align 4, !tbaa !31
  br label %62

61:                                               ; preds = %52
  br label %62

62:                                               ; preds = %61, %59
  %63 = phi i32 [ %60, %59 ], [ 65535, %61 ]
  store i32 %63, ptr %3, align 4
  store i32 1, ptr %9, align 4
  br label %64

64:                                               ; preds = %62, %51
  call void @llvm.lifetime.end.p0(i64 1, ptr %8) #10
  call void @llvm.lifetime.end.p0(i64 4, ptr %7) #10
  call void @llvm.lifetime.end.p0(i64 4, ptr %6) #10
  %65 = load i32, ptr %3, align 4
  ret i32 %65
}