; Function Attrs: mustprogress uwtable
define range(i32 0, 1114112) i32 @u_fputc_77(i32 noundef %0, ptr noundef captures(none) %1) local_unnamed_addr #0 {
  %3 = alloca [2 x i16], align 2
  call void @llvm.lifetime.start.p0(i64 4, ptr nonnull %3) #12
  %4 = icmp ult i32 %0, 65536
  br i1 %4, label %5, label %7

5:                                                ; preds = %2
  %6 = trunc nuw i32 %0 to i16
  store i16 %6, ptr %3, align 2, !tbaa !38
  br label %17

7:                                                ; preds = %2
  %8 = icmp ult i32 %0, 1114112
  br i1 %8, label %9, label %21

9:                                                ; preds = %7
  %10 = lshr i32 %0, 10
  %11 = trunc nuw i32 %10 to i16
  %12 = add nuw nsw i16 %11, -10304
  store i16 %12, ptr %3, align 2, !tbaa !38
  %13 = trunc i32 %0 to i16
  %14 = and i16 %13, 1023
  %15 = or disjoint i16 %14, -9216
  %16 = getelementptr inbounds nuw i8, ptr %3, i64 2
  store i16 %15, ptr %16, align 2, !tbaa !38
  br label %17

17:                                               ; preds = %5, %9
  %.014.ph = phi i32 [ 2, %9 ], [ 1, %5 ]
  %18 = call i32 @u_file_write_flush_77(ptr noundef nonnull %3, i32 noundef %.014.ph, ptr noundef %1, i8 noundef signext 0, i8 noundef signext 0)
  %19 = icmp eq i32 %18, %.014.ph
  %20 = select i1 %19, i32 %0, i32 65535
  br label %21

21:                                               ; preds = %7, %17
  %.015 = phi i32 [ %20, %17 ], [ 65535, %7 ]
  call void @llvm.lifetime.end.p0(i64 4, ptr nonnull %3) #12
  ret i32 %.015
}